target datalayout = "e-m:e-p270:32:32-p271:32:32-p272:64:64-i64:64-i128:128-f80:128-n8:16:32:64-S128"
target triple = "x86_64-pc-linux-gnu"

; Function Attrs: alwaysinline nounwind
define internal ptr @memset.inline(ptr nonnull %0, i32 %1, i64 %2) #1 {
  %4 = alloca ptr, align 8
  %5 = alloca i32, align 4
  %6 = alloca i64, align 8
  store ptr %0, ptr %4, align 8
  store i32 %1, ptr %5, align 4
  store i64 %2, ptr %6, align 8
  %7 = load ptr, ptr %4, align 8
  %8 = load i32, ptr %5, align 4
  %9 = load i64, ptr %6, align 8
  %10 = load ptr, ptr %4, align 8
  %11 = call i64 @llvm.objectsize.i64.p0(ptr %10, i1 false, i1 true, i1 true)
  %12 = call ptr @__memset_chk(ptr noundef %7, i32 noundef %8, i64 noundef %9, i64 noundef %11) #9
  ret ptr %12
}

; Function Attrs: nounwind ssp uwtable
define dso_local i32 @crypto_pwhash_argon2i_str(ptr noundef nonnull %0, ptr noundef nonnull %1, i64 noundef %2, i64 noundef %3, i64 noundef %4) #0 {
  %6 = alloca i32, align 4
  %7 = alloca ptr, align 8
  %8 = alloca ptr, align 8
  %9 = alloca i64, align 8
  %10 = alloca i64, align 8
  %11 = alloca i64, align 8
  %12 = alloca [16 x i8], align 16
  %13 = alloca i32, align 4
  store ptr %0, ptr %7, align 8
  store ptr %1, ptr %8, align 8
  store i64 %2, ptr %9, align 8
  store i64 %3, ptr %10, align 8
  store i64 %4, ptr %11, align 8
  call void @llvm.lifetime.start.p0(i64 16, ptr %12) #9
  %14 = load ptr, ptr %7, align 8
  %15 = call ptr @memset.inline(ptr noundef %14, i32 noundef 0, i64 noundef 128) #9
  %16 = load i64, ptr %9, align 8
  %17 = icmp ugt i64 %16, 4294967295
  br i1 %17, label %24, label %18

18:                                               ; preds = %5
  %19 = load i64, ptr %10, align 8
  %20 = icmp ugt i64 %19, 4294967295
  br i1 %20, label %24, label %21

21:                                               ; preds = %18
  %22 = load i64, ptr %11, align 8
  %23 = icmp ugt i64 %22, 4398046510080
  br i1 %23, label %24, label %26

24:                                               ; preds = %21, %18, %5
  %25 = call ptr @__errno_location() #10
  store i32 27, ptr %25, align 4
  store i32 -1, ptr %6, align 4
  store i32 1, ptr %13, align 4
  br label %52

26:                                               ; preds = %21
  %27 = load i64, ptr %9, align 8
  %28 = icmp ult i64 %27, 0
  br i1 %28, label %35, label %29

29:                                               ; preds = %26
  %30 = load i64, ptr %10, align 8
  %31 = icmp ult i64 %30, 3
  br i1 %31, label %35, label %32

32:                                               ; preds = %29
  %33 = load i64, ptr %11, align 8
  %34 = icmp ult i64 %33, 8192
  br i1 %34, label %35, label %37

35:                                               ; preds = %32, %29, %26
  %36 = call ptr @__errno_location() #10
  store i32 22, ptr %36, align 4
  store i32 -1, ptr %6, align 4
  store i32 1, ptr %13, align 4
  br label %52

37:                                               ; preds = %32
  %38 = getelementptr inbounds [16 x i8], ptr %12, i64 0, i64 0
  call void @randombytes_buf(ptr noundef %38, i64 noundef 16)
  %39 = load i64, ptr %10, align 8
  %40 = trunc i64 %39 to i32
  %41 = load i64, ptr %11, align 8
  %42 = udiv i64 %41, 1024
  %43 = trunc i64 %42 to i32
  %44 = load ptr, ptr %8, align 8
  %45 = load i64, ptr %9, align 8
  %46 = getelementptr inbounds [16 x i8], ptr %12, i64 0, i64 0
  %47 = load ptr, ptr %7, align 8
  %48 = call i32 @_sodium_argon2i_hash_encoded(i32 noundef %40, i32 noundef %43, i32 noundef 1, ptr noundef %44, i64 noundef %45, ptr noundef %46, i64 noundef 16, i64 noundef 32, ptr noundef %47, i64 noundef 128)
  %49 = icmp ne i32 %48, 0
  br i1 %49, label %50, label %51

50:                                               ; preds = %37
  store i32 -1, ptr %6, align 4
  store i32 1, ptr %13, align 4
  br label %52

51:                                               ; preds = %37
  store i32 0, ptr %6, align 4
  store i32 1, ptr %13, align 4
  br label %52

52:                                               ; preds = %51, %50, %35, %24
  call void @llvm.lifetime.end.p0(i64 16, ptr %12) #9
  %53 = load i32, ptr %6, align 4
  ret i32 %53
}