; Function Attrs: nounwind ssp uwtable
define dso_local range(i32 -1, 1) i32 @crypto_pwhash_argon2i_str(ptr noundef nonnull %0, ptr noundef nonnull %1, i64 noundef %2, i64 noundef %3, i64 noundef %4) local_unnamed_addr #1 {
  %6 = alloca [16 x i8], align 16
  call void @llvm.lifetime.start.p0(i64 16, ptr nonnull %6) #9
  tail call void @llvm.memset.p0.i64(ptr noundef nonnull align 1 dereferenceable(128) %0, i8 noundef 0, i64 noundef 128, i1 noundef false) #9
  %7 = or i64 %3, %2
  %or.cond = icmp ugt i64 %7, 4294967295
  %8 = icmp ugt i64 %4, 4398046510080
  %or.cond3 = or i1 %or.cond, %8
  br i1 %or.cond3, label %9, label %11

9:                                                ; preds = %5
  %10 = tail call ptr @__errno_location() #10
  store i32 27, ptr %10, align 4
  br label %21

11:                                               ; preds = %5
  %12 = icmp samesign ult i64 %3, 3
  %13 = icmp samesign ult i64 %4, 8192
  %or.cond7 = or i1 %12, %13
  br i1 %or.cond7, label %14, label %16

14:                                               ; preds = %11
  %15 = tail call ptr @__errno_location() #10
  store i32 22, ptr %15, align 4
  br label %21

16:                                               ; preds = %11
  call void @randombytes_buf(ptr noundef nonnull %6, i64 noundef 16) #9
  %17 = trunc nuw i64 %3 to i32
  %18 = lshr i64 %4, 10
  %19 = trunc nuw i64 %18 to i32
  %20 = call i32 @_sodium_argon2i_hash_encoded(i32 noundef %17, i32 noundef %19, i32 noundef 1, ptr noundef nonnull %1, i64 noundef %2, ptr noundef nonnull %6, i64 noundef 16, i64 noundef 32, ptr noundef nonnull %0, i64 noundef 128) #9
  %.not = icmp ne i32 %20, 0
  %. = sext i1 %.not to i32
  br label %21

21:                                               ; preds = %16, %14, %9
  %.0 = phi i32 [ -1, %9 ], [ -1, %14 ], [ %., %16 ]
  call void @llvm.lifetime.end.p0(i64 16, ptr nonnull %6) #9
  ret i32 %.0
}